; Function Attrs: nounwind uwtable
define hidden void @je_base_stats_get(ptr noundef %0, ptr noundef %1, ptr noundef writeonly captures(none) initializes((0, 8)) %2, ptr noundef writeonly captures(none) initializes((0, 8)) %3, ptr noundef writeonly captures(none) initializes((0, 8)) %4, ptr noundef writeonly captures(none) initializes((0, 8)) %5, ptr noundef writeonly captures(none) initializes((0, 8)) %6, ptr noundef writeonly captures(none) initializes((0, 8)) %7) local_unnamed_addr #1 {
  %9 = getelementptr inbounds nuw i8, ptr %1, i64 104
  %10 = tail call i32 @pthread_mutex_trylock(ptr noundef nonnull %9) #10
  %.not.i = icmp eq i32 %10, 0
  br i1 %.not.i, label %malloc_mutex_trylock_final.exit.i, label %12

malloc_mutex_trylock_final.exit.i:                ; preds = %8
  %11 = getelementptr inbounds nuw i8, ptr %1, i64 96
  store atomic i8 1, ptr %11 monotonic, align 1
  br label %14

12:                                               ; preds = %8
  %13 = getelementptr inbounds nuw i8, ptr %1, i64 32
  tail call void @je_malloc_mutex_lock_slow(ptr noundef nonnull %13) #10
  br label %14

14:                                               ; preds = %12, %malloc_mutex_trylock_final.exit.i
  %15 = getelementptr inbounds nuw i8, ptr %1, i64 88
  %16 = load i64, ptr %15, align 8, !tbaa !38
  %17 = add i64 %16, 1
  store i64 %17, ptr %15, align 8, !tbaa !38
  %18 = getelementptr inbounds nuw i8, ptr %1, i64 80
  %19 = load ptr, ptr %18, align 8, !tbaa !43
  %.not.i.i = icmp eq ptr %19, %0
  br i1 %.not.i.i, label %malloc_mutex_lock.exit, label %20

20:                                               ; preds = %14
  store ptr %0, ptr %18, align 8, !tbaa !43
  %21 = getelementptr inbounds nuw i8, ptr %1, i64 72
  %22 = load i64, ptr %21, align 8, !tbaa !44
  %23 = add i64 %22, 1
  store i64 %23, ptr %21, align 8, !tbaa !44
  br label %malloc_mutex_lock.exit

malloc_mutex_lock.exit:                           ; preds = %14, %20
  %24 = getelementptr inbounds nuw i8, ptr %1, i64 3896
  %25 = load i64, ptr %24, align 8, !tbaa !32
  store i64 %25, ptr %2, align 8, !tbaa !11
  %26 = getelementptr inbounds nuw i8, ptr %1, i64 3904
  %27 = load i64, ptr %26, align 8, !tbaa !64
  store i64 %27, ptr %3, align 8, !tbaa !11
  %28 = getelementptr inbounds nuw i8, ptr %1, i64 3912
  %29 = load i64, ptr %28, align 8, !tbaa !65
  store i64 %29, ptr %4, align 8, !tbaa !11
  %30 = getelementptr inbounds nuw i8, ptr %1, i64 3920
  %31 = load i64, ptr %30, align 8, !tbaa !33
  store i64 %31, ptr %5, align 8, !tbaa !11
  %32 = getelementptr inbounds nuw i8, ptr %1, i64 3928
  %33 = load i64, ptr %32, align 8, !tbaa !34
  store i64 %33, ptr %6, align 8, !tbaa !11
  %34 = getelementptr inbounds nuw i8, ptr %1, i64 3936
  %35 = load i64, ptr %34, align 8, !tbaa !35
  store i64 %35, ptr %7, align 8, !tbaa !11
  %36 = getelementptr inbounds nuw i8, ptr %1, i64 96
  store atomic i8 0, ptr %36 monotonic, align 1
  %37 = tail call i32 @pthread_mutex_unlock(ptr noundef nonnull %9) #10
  ret void
}